target datalayout = "e-m:e-p270:32:32-p271:32:32-p272:64:64-i64:64-i128:128-f80:128-n8:16:32:64-S128"
target triple = "x86_64-pc-linux-gnu"

%struct.textlabel_t = type { ptr, ptr, ptr, i32, double, %struct.pointf_s, %struct.pointf_s, %struct.pointf_s, %union.anon, i8, i8, i8 }
%struct.pointf_s = type { double, double }
%union.anon = type { %struct.anon }
%struct.anon = type { ptr, i64 }
%struct.textfont_t = type { ptr, ptr, ptr, double, i32 }
%struct.textspan_t = type { ptr, ptr, ptr, ptr, double, double, %struct.pointf_s, i8 }
%struct.GVC_s = type { %struct.GVCOMMON_s, ptr, i8, ptr, i32, ptr, ptr, [5 x ptr], [5 x ptr], ptr, ptr, %struct.dtdisc_s_, ptr, %struct.gvplugin_active_textlayout_s, ptr, ptr, ptr, %struct.gvplugin_active_layout_s, ptr, ptr, ptr, %struct.pointf_s, %struct.pointf_s, %struct.pointf_s, %struct.point, %struct.boxf, i32, i8, i8, i8, ptr, ptr, ptr, ptr, i32, ptr, ptr, double, ptr, %struct.color_s, i32 }
%struct.GVCOMMON_s = type { ptr, ptr, i32, i8, i8, ptr, ptr, ptr, i32, ptr, i32 }
%struct.dtdisc_s_ = type { i32, i32, i32, ptr, ptr, ptr }
%struct.gvplugin_active_textlayout_s = type { ptr, i32, ptr }
%struct.gvplugin_active_layout_s = type { ptr, i32, ptr, ptr }
%struct.point = type { i32, i32 }
%struct.boxf = type { %struct.pointf_s, %struct.pointf_s }
%struct.color_s = type { %union.anon.4, i32 }
%union.anon.4 = type { [4 x double] }
%struct.dt_s_ = type { ptr, ptr, %struct.Dtdata_t, ptr, i32, ptr, ptr, ptr }
%struct.Dtdata_t = type { i32, ptr, %union.anon.5, i32, i32, i32 }
%union.anon.5 = type { ptr }

@stderr = external global ptr, align 8
@.str.5 = private unnamed_addr constant [58 x i8] c"integer overflow when trying to allocate %zu * %zu bytes\0A\00", align 1
@.str.6 = private unnamed_addr constant [49 x i8] c"out of memory when trying to allocate %zu bytes\0A\00", align 1

; Function Attrs: inlinehint nounwind uwtable
define internal ptr @gv_realloc(ptr noundef %0, i64 noundef %1, i64 noundef %2) #3 {
  %4 = alloca ptr, align 8
  %5 = alloca ptr, align 8
  %6 = alloca i64, align 8
  %7 = alloca i64, align 8
  %8 = alloca ptr, align 8
  store ptr %0, ptr %5, align 8, !tbaa !26
  store i64 %1, ptr %6, align 8, !tbaa !27
  store i64 %2, ptr %7, align 8, !tbaa !27
  %9 = load i64, ptr %7, align 8, !tbaa !27
  %10 = icmp eq i64 %9, 0
  br i1 %10, label %11, label %13

11:                                               ; preds = %3
  %12 = load ptr, ptr %5, align 8, !tbaa !26
  call void @free(ptr noundef %12) #13
  store ptr null, ptr %4, align 8
  br label %36

13:                                               ; preds = %3
  call void @llvm.lifetime.start.p0(i64 8, ptr %8) #13
  %14 = load ptr, ptr %5, align 8, !tbaa !26
  %15 = load i64, ptr %7, align 8, !tbaa !27
  %16 = call ptr @realloc(ptr noundef %14, i64 noundef %15) #18
  store ptr %16, ptr %8, align 8, !tbaa !26
  %17 = load ptr, ptr %8, align 8, !tbaa !26
  %18 = icmp eq ptr %17, null
  br i1 %18, label %19, label %23

19:                                               ; preds = %13
  %20 = load ptr, ptr @stderr, align 8, !tbaa !97
  %21 = load i64, ptr %7, align 8, !tbaa !27
  %22 = call i32 (ptr, ptr, ...) @fprintf(ptr noundef %20, ptr noundef @.str.6, i64 noundef %21) #13
  call void @graphviz_exit(i32 noundef 1) #15
  unreachable

23:                                               ; preds = %13
  %24 = load i64, ptr %7, align 8, !tbaa !27
  %25 = load i64, ptr %6, align 8, !tbaa !27
  %26 = icmp ugt i64 %24, %25
  br i1 %26, label %27, label %34

27:                                               ; preds = %23
  %28 = load ptr, ptr %8, align 8, !tbaa !26
  %29 = load i64, ptr %6, align 8, !tbaa !27
  %30 = getelementptr inbounds nuw i8, ptr %28, i64 %29
  %31 = load i64, ptr %7, align 8, !tbaa !27
  %32 = load i64, ptr %6, align 8, !tbaa !27
  %33 = sub i64 %31, %32
  call void @llvm.memset.p0.i64(ptr align 1 %30, i8 0, i64 %33, i1 false)
  br label %34

34:                                               ; preds = %27, %23
  %35 = load ptr, ptr %8, align 8, !tbaa !26
  store ptr %35, ptr %4, align 8
  call void @llvm.lifetime.end.p0(i64 8, ptr %8) #13
  br label %36

36:                                               ; preds = %34, %11
  %37 = load ptr, ptr %4, align 8
  ret ptr %37
}

; Function Attrs: inlinehint nounwind uwtable
define internal ptr @gv_recalloc(ptr noundef %0, i64 noundef %1, i64 noundef %2, i64 noundef %3) #3 {
  %5 = alloca ptr, align 8
  %6 = alloca i64, align 8
  %7 = alloca i64, align 8
  %8 = alloca i64, align 8
  store ptr %0, ptr %5, align 8, !tbaa !26
  store i64 %1, ptr %6, align 8, !tbaa !27
  store i64 %2, ptr %7, align 8, !tbaa !27
  store i64 %3, ptr %8, align 8, !tbaa !27
  %9 = load i64, ptr %7, align 8, !tbaa !27
  %10 = load i64, ptr %8, align 8, !tbaa !27
  %11 = udiv i64 -1, %10
  %12 = icmp ugt i64 %9, %11
  br i1 %12, label %13, label %18

13:                                               ; preds = %4
  %14 = load ptr, ptr @stderr, align 8, !tbaa !97
  %15 = load i64, ptr %7, align 8, !tbaa !27
  %16 = load i64, ptr %8, align 8, !tbaa !27
  %17 = call i32 (ptr, ptr, ...) @fprintf(ptr noundef %14, ptr noundef @.str.5, i64 noundef %15, i64 noundef %16) #13
  call void @graphviz_exit(i32 noundef 1) #15
  unreachable

18:                                               ; preds = %4
  %19 = load ptr, ptr %5, align 8, !tbaa !26
  %20 = load i64, ptr %6, align 8, !tbaa !27
  %21 = load i64, ptr %8, align 8, !tbaa !27
  %22 = mul i64 %20, %21
  %23 = load i64, ptr %7, align 8, !tbaa !27
  %24 = load i64, ptr %8, align 8, !tbaa !27
  %25 = mul i64 %23, %24
  %26 = call ptr @gv_realloc(ptr noundef %19, i64 noundef %22, i64 noundef %25)
  ret ptr %26
}

; Function Attrs: nounwind uwtable
define internal void @storeline(ptr noundef %0, ptr noundef %1, ptr noundef %2, i8 noundef signext %3) #0 {
  %5 = alloca ptr, align 8
  %6 = alloca ptr, align 8
  %7 = alloca ptr, align 8
  %8 = alloca i8, align 1
  %9 = alloca %struct.pointf_s, align 8
  %10 = alloca ptr, align 8
  %11 = alloca i64, align 8
  %12 = alloca %struct.textfont_t, align 8
  %13 = alloca %struct.pointf_s, align 8
  store ptr %0, ptr %5, align 8, !tbaa !3
  store ptr %1, ptr %6, align 8, !tbaa !8
  store ptr %2, ptr %7, align 8, !tbaa !20
  store i8 %3, ptr %8, align 1, !tbaa !19
  call void @llvm.lifetime.start.p0(i64 16, ptr %9) #13
  call void @llvm.lifetime.start.p0(i64 8, ptr %10) #13
  call void @llvm.lifetime.start.p0(i64 8, ptr %11) #13
  %14 = load ptr, ptr %6, align 8, !tbaa !8
  %15 = getelementptr inbounds nuw %struct.textlabel_t, ptr %14, i32 0, i32 8
  %16 = getelementptr inbounds nuw %struct.anon, ptr %15, i32 0, i32 1
  %17 = load i64, ptr %16, align 8, !tbaa !19
  %18 = add i64 %17, 1
  store i64 %18, ptr %11, align 8, !tbaa !27
  %19 = load ptr, ptr %6, align 8, !tbaa !8
  %20 = getelementptr inbounds nuw %struct.textlabel_t, ptr %19, i32 0, i32 8
  %21 = getelementptr inbounds nuw %struct.anon, ptr %20, i32 0, i32 0
  %22 = load ptr, ptr %21, align 8, !tbaa !19
  %23 = load i64, ptr %11, align 8, !tbaa !27
  %24 = load i64, ptr %11, align 8, !tbaa !27
  %25 = add i64 %24, 1
  %26 = call ptr @gv_recalloc(ptr noundef %22, i64 noundef %23, i64 noundef %25, i64 noundef 72)
  %27 = load ptr, ptr %6, align 8, !tbaa !8
  %28 = getelementptr inbounds nuw %struct.textlabel_t, ptr %27, i32 0, i32 8
  %29 = getelementptr inbounds nuw %struct.anon, ptr %28, i32 0, i32 0
  store ptr %26, ptr %29, align 8, !tbaa !19
  %30 = load ptr, ptr %6, align 8, !tbaa !8
  %31 = getelementptr inbounds nuw %struct.textlabel_t, ptr %30, i32 0, i32 8
  %32 = getelementptr inbounds nuw %struct.anon, ptr %31, i32 0, i32 0
  %33 = load ptr, ptr %32, align 8, !tbaa !19
  %34 = load ptr, ptr %6, align 8, !tbaa !8
  %35 = getelementptr inbounds nuw %struct.textlabel_t, ptr %34, i32 0, i32 8
  %36 = getelementptr inbounds nuw %struct.anon, ptr %35, i32 0, i32 1
  %37 = load i64, ptr %36, align 8, !tbaa !19
  %38 = getelementptr inbounds nuw %struct.textspan_t, ptr %33, i64 %37
  store ptr %38, ptr %10, align 8, !tbaa !26
  %39 = load ptr, ptr %7, align 8, !tbaa !20
  %40 = load ptr, ptr %10, align 8, !tbaa !26
  %41 = getelementptr inbounds nuw %struct.textspan_t, ptr %40, i32 0, i32 0
  store ptr %39, ptr %41, align 8, !tbaa !29
  %42 = load i8, ptr %8, align 1, !tbaa !19
  %43 = load ptr, ptr %10, align 8, !tbaa !26
  %44 = getelementptr inbounds nuw %struct.textspan_t, ptr %43, i32 0, i32 7
  store i8 %42, ptr %44, align 8, !tbaa !31
  %45 = load ptr, ptr %7, align 8, !tbaa !20
  %46 = icmp ne ptr %45, null
  br i1 %46, label %47, label %80

47:                                               ; preds = %4
  %48 = load ptr, ptr %7, align 8, !tbaa !20
  %49 = getelementptr inbounds i8, ptr %48, i64 0
  %50 = load i8, ptr %49, align 1, !tbaa !19
  %51 = sext i8 %50 to i32
  %52 = icmp ne i32 %51, 0
  br i1 %52, label %53, label %80

53:                                               ; preds = %47
  call void @llvm.lifetime.start.p0(i64 40, ptr %12) #13
  call void @llvm.memset.p0.i64(ptr align 8 %12, i8 0, i64 40, i1 false)
  %54 = load ptr, ptr %6, align 8, !tbaa !8
  %55 = getelementptr inbounds nuw %struct.textlabel_t, ptr %54, i32 0, i32 1
  %56 = load ptr, ptr %55, align 8, !tbaa !32
  %57 = getelementptr inbounds nuw %struct.textfont_t, ptr %12, i32 0, i32 0
  store ptr %56, ptr %57, align 8, !tbaa !33
  %58 = load ptr, ptr %6, align 8, !tbaa !8
  %59 = getelementptr inbounds nuw %struct.textlabel_t, ptr %58, i32 0, i32 4
  %60 = load double, ptr %59, align 8, !tbaa !36
  %61 = getelementptr inbounds nuw %struct.textfont_t, ptr %12, i32 0, i32 3
  store double %60, ptr %61, align 8, !tbaa !37
  %62 = load ptr, ptr %5, align 8, !tbaa !3
  %63 = getelementptr inbounds nuw %struct.GVC_s, ptr %62, i32 0, i32 12
  %64 = load ptr, ptr %63, align 8, !tbaa !38
  %65 = getelementptr inbounds nuw %struct.dt_s_, ptr %64, i32 0, i32 0
  %66 = load ptr, ptr %65, align 8, !tbaa !56
  %67 = load ptr, ptr %5, align 8, !tbaa !3
  %68 = getelementptr inbounds nuw %struct.GVC_s, ptr %67, i32 0, i32 12
  %69 = load ptr, ptr %68, align 8, !tbaa !38
  %70 = call ptr %66(ptr noundef %69, ptr noundef %12, i32 noundef 1)
  %71 = load ptr, ptr %10, align 8, !tbaa !26
  %72 = getelementptr inbounds nuw %struct.textspan_t, ptr %71, i32 0, i32 1
  store ptr %70, ptr %72, align 8, !tbaa !61
  call void @llvm.lifetime.start.p0(i64 16, ptr %13) #13
  %73 = load ptr, ptr %5, align 8, !tbaa !3
  %74 = load ptr, ptr %10, align 8, !tbaa !26
  %75 = call { double, double } @textspan_size(ptr noundef %73, ptr noundef %74)
  %76 = getelementptr inbounds nuw { double, double }, ptr %13, i32 0, i32 0
  %77 = extractvalue { double, double } %75, 0
  store double %77, ptr %76, align 8
  %78 = getelementptr inbounds nuw { double, double }, ptr %13, i32 0, i32 1
  %79 = extractvalue { double, double } %75, 1
  store double %79, ptr %78, align 8
  call void @llvm.memcpy.p0.p0.i64(ptr align 8 %9, ptr align 8 %13, i64 16, i1 false), !tbaa.struct !24
  call void @llvm.lifetime.end.p0(i64 16, ptr %13) #13
  call void @llvm.lifetime.end.p0(i64 40, ptr %12) #13
  br label %92

80:                                               ; preds = %47, %4
  %81 = getelementptr inbounds nuw %struct.pointf_s, ptr %9, i32 0, i32 0
  store double 0.000000e+00, ptr %81, align 8, !tbaa !62
  %82 = load ptr, ptr %6, align 8, !tbaa !8
  %83 = getelementptr inbounds nuw %struct.textlabel_t, ptr %82, i32 0, i32 4
  %84 = load double, ptr %83, align 8, !tbaa !36
  %85 = fmul double %84, 1.200000e+00
  %86 = fptosi double %85 to i32
  %87 = sitofp i32 %86 to double
  %88 = getelementptr inbounds nuw %struct.pointf_s, ptr %9, i32 0, i32 1
  store double %87, ptr %88, align 8, !tbaa !63
  %89 = load ptr, ptr %10, align 8, !tbaa !26
  %90 = getelementptr inbounds nuw %struct.textspan_t, ptr %89, i32 0, i32 6
  %91 = getelementptr inbounds nuw %struct.pointf_s, ptr %90, i32 0, i32 1
  store double %87, ptr %91, align 8, !tbaa !64
  br label %92

92:                                               ; preds = %80, %53
  %93 = load ptr, ptr %6, align 8, !tbaa !8
  %94 = getelementptr inbounds nuw %struct.textlabel_t, ptr %93, i32 0, i32 8
  %95 = getelementptr inbounds nuw %struct.anon, ptr %94, i32 0, i32 1
  %96 = load i64, ptr %95, align 8, !tbaa !19
  %97 = add i64 %96, 1
  store i64 %97, ptr %95, align 8, !tbaa !19
  %98 = load ptr, ptr %6, align 8, !tbaa !8
  %99 = getelementptr inbounds nuw %struct.textlabel_t, ptr %98, i32 0, i32 5
  %100 = getelementptr inbounds nuw %struct.pointf_s, ptr %99, i32 0, i32 0
  %101 = load double, ptr %100, align 8, !tbaa !17
  %102 = getelementptr inbounds nuw %struct.pointf_s, ptr %9, i32 0, i32 0
  %103 = load double, ptr %102, align 8, !tbaa !62
  %104 = fcmp ogt double %101, %103
  br i1 %104, label %105, label %110

105:                                              ; preds = %92
  %106 = load ptr, ptr %6, align 8, !tbaa !8
  %107 = getelementptr inbounds nuw %struct.textlabel_t, ptr %106, i32 0, i32 5
  %108 = getelementptr inbounds nuw %struct.pointf_s, ptr %107, i32 0, i32 0
  %109 = load double, ptr %108, align 8, !tbaa !17
  br label %113

110:                                              ; preds = %92
  %111 = getelementptr inbounds nuw %struct.pointf_s, ptr %9, i32 0, i32 0
  %112 = load double, ptr %111, align 8, !tbaa !62
  br label %113

113:                                              ; preds = %110, %105
  %114 = phi double [ %109, %105 ], [ %112, %110 ]
  %115 = load ptr, ptr %6, align 8, !tbaa !8
  %116 = getelementptr inbounds nuw %struct.textlabel_t, ptr %115, i32 0, i32 5
  %117 = getelementptr inbounds nuw %struct.pointf_s, ptr %116, i32 0, i32 0
  store double %114, ptr %117, align 8, !tbaa !17
  %118 = getelementptr inbounds nuw %struct.pointf_s, ptr %9, i32 0, i32 1
  %119 = load double, ptr %118, align 8, !tbaa !63
  %120 = load ptr, ptr %6, align 8, !tbaa !8
  %121 = getelementptr inbounds nuw %struct.textlabel_t, ptr %120, i32 0, i32 5
  %122 = getelementptr inbounds nuw %struct.pointf_s, ptr %121, i32 0, i32 1
  %123 = load double, ptr %122, align 8, !tbaa !10
  %124 = fadd double %123, %119
  store double %124, ptr %122, align 8, !tbaa !10
  call void @llvm.lifetime.end.p0(i64 8, ptr %11) #13
  call void @llvm.lifetime.end.p0(i64 8, ptr %10) #13
  call void @llvm.lifetime.end.p0(i64 16, ptr %9) #13
  ret void
}