; Function Attrs: nounwind uwtable
define internal fastcc void @storeline(ptr noundef %0, ptr noundef captures(none) %1, ptr noundef %2, i8 noundef signext %3) unnamed_addr #0 {
  %5 = alloca %struct.textfont_t, align 8
  %6 = getelementptr inbounds nuw i8, ptr %1, i64 88
  %7 = getelementptr inbounds nuw i8, ptr %1, i64 96
  %8 = load i64, ptr %7, align 8, !tbaa !13
  %9 = load ptr, ptr %6, align 8, !tbaa !13
  %10 = add i64 %8, 2
  %mul.ov.i = icmp ugt i64 %10, 256204778801521550
  br i1 %mul.ov.i, label %11, label %14

11:                                               ; preds = %4
  %12 = load ptr, ptr @stderr, align 8, !tbaa !17
  %13 = tail call i32 (ptr, ptr, ...) @fprintf(ptr noundef %12, ptr noundef nonnull @.str.5, i64 noundef %10, i64 noundef 72) #17
  tail call fastcc void @graphviz_exit() #18
  unreachable

14:                                               ; preds = %4
  %15 = mul i64 %8, 72
  %16 = add i64 %15, 72
  %17 = mul nuw i64 %10, 72
  %18 = icmp eq i64 %10, 0
  br i1 %18, label %19, label %20

19:                                               ; preds = %14
  tail call void @free(ptr noundef %9) #16
  br label %gv_recalloc.exit

20:                                               ; preds = %14
  %21 = tail call ptr @realloc(ptr noundef %9, i64 noundef %17) #19
  %22 = icmp eq ptr %21, null
  br i1 %22, label %23, label %26

23:                                               ; preds = %20
  %24 = load ptr, ptr @stderr, align 8, !tbaa !17
  %25 = tail call i32 (ptr, ptr, ...) @fprintf(ptr noundef %24, ptr noundef nonnull @.str.6, i64 noundef %17) #17
  tail call fastcc void @graphviz_exit() #18
  unreachable

26:                                               ; preds = %20
  %27 = icmp ugt i64 %17, %16
  br i1 %27, label %28, label %gv_recalloc.exit

28:                                               ; preds = %26
  %29 = getelementptr inbounds nuw i8, ptr %21, i64 %16
  %30 = sub nuw i64 %17, %16
  tail call void @llvm.memset.p0.i64(ptr nonnull align 1 %29, i8 0, i64 %30, i1 false)
  br label %gv_recalloc.exit

gv_recalloc.exit:                                 ; preds = %19, %26, %28
  %.0.i.i = phi ptr [ null, %19 ], [ %21, %28 ], [ %21, %26 ]
  store ptr %.0.i.i, ptr %6, align 8, !tbaa !13
  %31 = load i64, ptr %7, align 8, !tbaa !13
  %32 = getelementptr inbounds nuw %struct.textspan_t, ptr %.0.i.i, i64 %31
  store ptr %2, ptr %32, align 8, !tbaa !21
  %33 = getelementptr inbounds nuw i8, ptr %32, i64 64
  store i8 %3, ptr %33, align 8, !tbaa !23
  %.not = icmp eq ptr %2, null
  br i1 %.not, label %51, label %34

34:                                               ; preds = %gv_recalloc.exit
  %35 = load i8, ptr %2, align 1, !tbaa !13
  %.not29 = icmp eq i8 %35, 0
  br i1 %.not29, label %51, label %36

36:                                               ; preds = %34
  call void @llvm.lifetime.start.p0(i64 40, ptr nonnull %5) #16
  %37 = getelementptr inbounds nuw i8, ptr %5, i64 8
  call void @llvm.memset.p0.i64(ptr noundef nonnull align 8 dereferenceable(40) %37, i8 0, i64 32, i1 false)
  %38 = getelementptr inbounds nuw i8, ptr %1, i64 8
  %39 = load ptr, ptr %38, align 8, !tbaa !24
  store ptr %39, ptr %5, align 8, !tbaa !25
  %40 = getelementptr inbounds nuw i8, ptr %1, i64 32
  %41 = load double, ptr %40, align 8, !tbaa !28
  %42 = getelementptr inbounds nuw i8, ptr %5, i64 24
  store double %41, ptr %42, align 8, !tbaa !29
  %43 = getelementptr inbounds nuw i8, ptr %0, i64 256
  %44 = load ptr, ptr %43, align 8, !tbaa !30
  %45 = load ptr, ptr %44, align 8, !tbaa !48
  %46 = call ptr %45(ptr noundef nonnull %44, ptr noundef nonnull %5, i32 noundef 1) #16
  %47 = getelementptr inbounds nuw i8, ptr %32, i64 8
  store ptr %46, ptr %47, align 8, !tbaa !53
  %48 = call { double, double } @textspan_size(ptr noundef %0, ptr noundef nonnull %32) #16
  %49 = extractvalue { double, double } %48, 0
  %50 = extractvalue { double, double } %48, 1
  call void @llvm.lifetime.end.p0(i64 40, ptr nonnull %5) #16
  %.pre = load i64, ptr %7, align 8, !tbaa !13
  br label %58

51:                                               ; preds = %34, %gv_recalloc.exit
  %52 = getelementptr inbounds nuw i8, ptr %1, i64 32
  %53 = load double, ptr %52, align 8, !tbaa !28
  %54 = fmul double %53, 1.200000e+00
  %55 = fptosi double %54 to i32
  %56 = sitofp i32 %55 to double
  %57 = getelementptr inbounds nuw i8, ptr %32, i64 56
  store double %56, ptr %57, align 8, !tbaa !54
  br label %58

58:                                               ; preds = %51, %36
  %59 = phi i64 [ %.pre, %36 ], [ %31, %51 ]
  %.sroa.06.0 = phi double [ %49, %36 ], [ 0.000000e+00, %51 ]
  %.sroa.6.0 = phi double [ %50, %36 ], [ %56, %51 ]
  %60 = add i64 %59, 1
  store i64 %60, ptr %7, align 8, !tbaa !13
  %61 = getelementptr inbounds nuw i8, ptr %1, i64 40
  %62 = load double, ptr %61, align 8, !tbaa !55
  %63 = fcmp ogt double %62, %.sroa.06.0
  %..sroa.06.0 = select i1 %63, double %62, double %.sroa.06.0
  store double %..sroa.06.0, ptr %61, align 8, !tbaa !55
  %64 = getelementptr inbounds nuw i8, ptr %1, i64 48
  %65 = load double, ptr %64, align 8, !tbaa !56
  %66 = fadd double %.sroa.6.0, %65
  store double %66, ptr %64, align 8, !tbaa !56
  ret void
}